; Function Attrs: nounwind uwtable
define ptr @l_Lean_PrettyPrinter_Formatter_getStackSize___rarg(ptr noundef %0, ptr readnone captures(none) %1, ptr readnone captures(none) %2, ptr noundef %3) local_unnamed_addr #0 {
  %5 = tail call ptr @l_Lean_PrettyPrinter_Formatter_getStack___rarg(ptr noundef %0, ptr poison, ptr poison, ptr noundef %3)
  %.val = load i32, ptr %5, align 4, !tbaa !8
  %6 = icmp eq i32 %.val, 1
  %7 = getelementptr inbounds nuw i8, ptr %5, i64 8
  %8 = load ptr, ptr %7, align 8, !tbaa !4
  br i1 %6, label %9, label %23

9:                                                ; preds = %4
  %10 = getelementptr i8, ptr %8, i64 8
  %.val32 = load i64, ptr %10, align 8, !tbaa !13
  %11 = shl i64 %.val32, 1
  %12 = or disjoint i64 %11, 1
  %13 = inttoptr i64 %12 to ptr
  %14 = ptrtoint ptr %8 to i64
  %15 = and i64 %14, 1
  %.not39 = icmp eq i64 %15, 0
  br i1 %.not39, label %16, label %lean_dec.exit26

16:                                               ; preds = %9
  %17 = load i32, ptr %8, align 4, !tbaa !8
  %18 = icmp sgt i32 %17, 1
  br i1 %18, label %19, label %21, !prof !11

19:                                               ; preds = %16
  %20 = add nsw i32 %17, -1
  store i32 %20, ptr %8, align 4, !tbaa !8
  br label %lean_dec.exit26

21:                                               ; preds = %16
  %.not.i = icmp eq i32 %17, 0
  br i1 %.not.i, label %lean_dec.exit26, label %22

22:                                               ; preds = %21
  tail call void @lean_dec_ref_cold(ptr noundef nonnull %8) #6
  br label %lean_dec.exit26

lean_dec.exit26:                                  ; preds = %22, %21, %19, %9
  store ptr %13, ptr %7, align 8, !tbaa !4
  br label %68

23:                                               ; preds = %4
  %24 = getelementptr inbounds nuw i8, ptr %5, i64 16
  %25 = load ptr, ptr %24, align 8, !tbaa !4
  %26 = ptrtoint ptr %25 to i64
  %27 = and i64 %26, 1
  %.not = icmp eq i64 %27, 0
  br i1 %.not, label %28, label %lean_inc.exit24

28:                                               ; preds = %23
  %.val.i = load i32, ptr %25, align 4, !tbaa !8
  %29 = icmp sgt i32 %.val.i, 0
  br i1 %29, label %30, label %32, !prof !11

30:                                               ; preds = %28
  %31 = add nuw i32 %.val.i, 1
  store i32 %31, ptr %25, align 4, !tbaa !8
  br label %lean_inc.exit24

32:                                               ; preds = %28
  %.not.i33 = icmp eq i32 %.val.i, 0
  br i1 %.not.i33, label %lean_inc.exit24, label %33

33:                                               ; preds = %32
  tail call void @lean_inc_ref_cold(ptr noundef nonnull %25) #6
  br label %lean_inc.exit24

lean_inc.exit24:                                  ; preds = %33, %32, %30, %23
  %34 = ptrtoint ptr %8 to i64
  %35 = and i64 %34, 1
  %.not37 = icmp eq i64 %35, 0
  br i1 %.not37, label %36, label %lean_inc.exit

36:                                               ; preds = %lean_inc.exit24
  %.val.i34 = load i32, ptr %8, align 4, !tbaa !8
  %37 = icmp sgt i32 %.val.i34, 0
  br i1 %37, label %38, label %40, !prof !11

38:                                               ; preds = %36
  %39 = add nuw i32 %.val.i34, 1
  store i32 %39, ptr %8, align 4, !tbaa !8
  br label %lean_inc.exit

40:                                               ; preds = %36
  %.not.i35 = icmp eq i32 %.val.i34, 0
  br i1 %.not.i35, label %lean_inc.exit, label %41

41:                                               ; preds = %40
  tail call void @lean_inc_ref_cold(ptr noundef nonnull %8) #6
  br label %lean_inc.exit

lean_inc.exit:                                    ; preds = %41, %40, %38, %lean_inc.exit24
  %42 = ptrtoint ptr %5 to i64
  %43 = and i64 %42, 1
  %.not38 = icmp eq i64 %43, 0
  br i1 %.not38, label %44, label %lean_dec.exit25

44:                                               ; preds = %lean_inc.exit
  %45 = load i32, ptr %5, align 4, !tbaa !8
  %46 = icmp sgt i32 %45, 1
  br i1 %46, label %47, label %49, !prof !11

47:                                               ; preds = %44
  %48 = add nsw i32 %45, -1
  store i32 %48, ptr %5, align 4, !tbaa !8
  br label %lean_dec.exit25

49:                                               ; preds = %44
  %.not.i27 = icmp eq i32 %45, 0
  br i1 %.not.i27, label %lean_dec.exit25, label %50

50:                                               ; preds = %49
  tail call void @lean_dec_ref_cold(ptr noundef nonnull %5) #6
  br label %lean_dec.exit25

lean_dec.exit25:                                  ; preds = %50, %49, %47, %lean_inc.exit
  %51 = getelementptr i8, ptr %8, i64 8
  %.val31 = load i64, ptr %51, align 8, !tbaa !13
  %52 = shl i64 %.val31, 1
  %53 = or disjoint i64 %52, 1
  %54 = inttoptr i64 %53 to ptr
  br i1 %.not37, label %55, label %lean_dec.exit

55:                                               ; preds = %lean_dec.exit25
  %56 = load i32, ptr %8, align 4, !tbaa !8
  %57 = icmp sgt i32 %56, 1
  br i1 %57, label %58, label %60, !prof !11

58:                                               ; preds = %55
  %59 = add nsw i32 %56, -1
  store i32 %59, ptr %8, align 4, !tbaa !8
  br label %lean_dec.exit

60:                                               ; preds = %55
  %.not.i29 = icmp eq i32 %56, 0
  br i1 %.not.i29, label %lean_dec.exit, label %61

61:                                               ; preds = %60
  tail call void @lean_dec_ref_cold(ptr noundef nonnull %8) #6
  br label %lean_dec.exit

lean_dec.exit:                                    ; preds = %61, %60, %58, %lean_dec.exit25
  tail call void @lean_inc_heartbeat() #6
  %62 = tail call noalias ptr @mi_malloc_small(i64 noundef 24) #6
  %63 = icmp eq ptr %62, null
  br i1 %63, label %64, label %lean_alloc_ctor.exit

64:                                               ; preds = %lean_dec.exit
  tail call void @lean_internal_panic_out_of_memory() #7
  unreachable

lean_alloc_ctor.exit:                             ; preds = %lean_dec.exit
  %65 = getelementptr inbounds nuw i8, ptr %62, i64 4
  store i32 1, ptr %62, align 4, !tbaa !8
  store i32 131096, ptr %65, align 4
  %66 = getelementptr inbounds nuw i8, ptr %62, i64 8
  store ptr %54, ptr %66, align 8, !tbaa !4
  %67 = getelementptr inbounds nuw i8, ptr %62, i64 16
  store ptr %25, ptr %67, align 8, !tbaa !4
  br label %68

68:                                               ; preds = %lean_alloc_ctor.exit, %lean_dec.exit26
  %.0 = phi ptr [ %5, %lean_dec.exit26 ], [ %62, %lean_alloc_ctor.exit ]
  ret ptr %.0
}